; Function Attrs: mustprogress nounwind uwtable
define void @_ZN6icu_7735SimpleFilteredSentenceBreakIteratorD2Ev(ptr noundef nonnull align 8 dereferenceable(56) initializes((0, 8)) %0) unnamed_addr #1 align 2 personality ptr @__gxx_personality_v0 {
  store ptr getelementptr inbounds nuw inrange(-16, 184) (i8, ptr @_ZTVN6icu_7735SimpleFilteredSentenceBreakIteratorE, i64 16), ptr %0, align 8, !tbaa !3
  %2 = getelementptr inbounds nuw i8, ptr %0, i64 32
  %3 = load ptr, ptr %2, align 8, !tbaa !11
  %4 = getelementptr inbounds nuw i8, ptr %3, i64 24
  %5 = atomicrmw sub ptr %4, i32 1 seq_cst, align 4
  %6 = icmp sgt i32 %5, 1
  br i1 %6, label %_ZN6icu_7731SimpleFilteredSentenceBreakData4decrEv.exit, label %7

7:                                                ; preds = %1
  %8 = load ptr, ptr %3, align 8, !tbaa !3
  %9 = getelementptr inbounds nuw i8, ptr %8, i64 8
  %10 = load ptr, ptr %9, align 8
  tail call void %10(ptr noundef nonnull align 8 dereferenceable(28) %3) #14
  br label %_ZN6icu_7731SimpleFilteredSentenceBreakData4decrEv.exit

_ZN6icu_7731SimpleFilteredSentenceBreakData4decrEv.exit: ; preds = %7, %1
  store ptr null, ptr %2, align 8, !tbaa !11
  %11 = getelementptr inbounds nuw i8, ptr %0, i64 48
  %12 = load ptr, ptr %11, align 8, !tbaa !24
  %.not.i = icmp eq ptr %12, null
  br i1 %.not.i, label %_ZN6icu_778internal16LocalOpenPointerI5UTextXadL_Z14utext_close_77EEED2Ev.exit, label %13

13:                                               ; preds = %_ZN6icu_7731SimpleFilteredSentenceBreakData4decrEv.exit
  %14 = invoke noundef ptr @utext_close_77(ptr noundef nonnull %12)
          to label %_ZN6icu_778internal16LocalOpenPointerI5UTextXadL_Z14utext_close_77EEED2Ev.exit unwind label %15

15:                                               ; preds = %13
  %16 = landingpad { ptr, i32 }
          catch ptr null
  %17 = extractvalue { ptr, i32 } %16, 0
  tail call void @__clang_call_terminate(ptr %17) #15
  unreachable

_ZN6icu_778internal16LocalOpenPointerI5UTextXadL_Z14utext_close_77EEED2Ev.exit: ; preds = %_ZN6icu_7731SimpleFilteredSentenceBreakData4decrEv.exit, %13
  %18 = getelementptr inbounds nuw i8, ptr %0, i64 40
  %19 = load ptr, ptr %18, align 8, !tbaa !23
  %20 = icmp eq ptr %19, null
  br i1 %20, label %_ZN6icu_7712LocalPointerINS_13BreakIteratorEED2Ev.exit, label %21

21:                                               ; preds = %_ZN6icu_778internal16LocalOpenPointerI5UTextXadL_Z14utext_close_77EEED2Ev.exit
  %22 = load ptr, ptr %19, align 8, !tbaa !3
  %23 = getelementptr inbounds nuw i8, ptr %22, i64 8
  %24 = load ptr, ptr %23, align 8
  tail call void %24(ptr noundef nonnull align 8 dereferenceable(32) %19) #14
  br label %_ZN6icu_7712LocalPointerINS_13BreakIteratorEED2Ev.exit

_ZN6icu_7712LocalPointerINS_13BreakIteratorEED2Ev.exit: ; preds = %_ZN6icu_778internal16LocalOpenPointerI5UTextXadL_Z14utext_close_77EEED2Ev.exit, %21
  tail call void @_ZN6icu_7713BreakIteratorD2Ev(ptr noundef nonnull align 8 dereferenceable(32) %0) #14
  ret void
}